; ModuleID = 'bench/openusd/original/tsTest_Evaluator.cpp.ll'
source_filename = "bench/openusd/original/tsTest_Evaluator.cpp.ll"
target datalayout = "e-m:e-p270:32:32-p271:32:32-p272:64:64-i64:64-i128:128-f80:128-n8:16:32:64-S128"
target triple = "x86_64-pc-linux-gnu"

%"class.std::vector" = type { %"struct.std::_Vector_base" }
%"struct.std::_Vector_base" = type { %"struct.std::_Vector_base<pxrInternal_v0_24__pxrReserved__::TsTest_Sample, std::allocator<pxrInternal_v0_24__pxrReserved__::TsTest_Sample>>::_Vector_impl" }
%"struct.std::_Vector_base<pxrInternal_v0_24__pxrReserved__::TsTest_Sample, std::allocator<pxrInternal_v0_24__pxrReserved__::TsTest_Sample>>::_Vector_impl" = type { %"struct.std::_Vector_base<pxrInternal_v0_24__pxrReserved__::TsTest_Sample, std::allocator<pxrInternal_v0_24__pxrReserved__::TsTest_Sample>>::_Vector_impl_data" }
%"struct.std::_Vector_base<pxrInternal_v0_24__pxrReserved__::TsTest_Sample, std::allocator<pxrInternal_v0_24__pxrReserved__::TsTest_Sample>>::_Vector_impl_data" = type { ptr, ptr, ptr }
%"class.pxrInternal_v0_24__pxrReserved__::TsTest_SplineData" = type { i8, %"class.std::set", %"struct.pxrInternal_v0_24__pxrReserved__::TsTest_SplineData::Extrapolation", %"struct.pxrInternal_v0_24__pxrReserved__::TsTest_SplineData::Extrapolation", %"struct.pxrInternal_v0_24__pxrReserved__::TsTest_SplineData::InnerLoopParams" }
%"class.std::set" = type { %"class.std::_Rb_tree" }
%"class.std::_Rb_tree" = type { %"struct.std::_Rb_tree<pxrInternal_v0_24__pxrReserved__::TsTest_SplineData::Knot, pxrInternal_v0_24__pxrReserved__::TsTest_SplineData::Knot, std::_Identity<pxrInternal_v0_24__pxrReserved__::TsTest_SplineData::Knot>, std::less<pxrInternal_v0_24__pxrReserved__::TsTest_SplineData::Knot>>::_Rb_tree_impl" }
%"struct.std::_Rb_tree<pxrInternal_v0_24__pxrReserved__::TsTest_SplineData::Knot, pxrInternal_v0_24__pxrReserved__::TsTest_SplineData::Knot, std::_Identity<pxrInternal_v0_24__pxrReserved__::TsTest_SplineData::Knot>, std::less<pxrInternal_v0_24__pxrReserved__::TsTest_SplineData::Knot>>::_Rb_tree_impl" = type { [8 x i8], %"struct.std::_Rb_tree_header" }
%"struct.std::_Rb_tree_header" = type { %"struct.std::_Rb_tree_node_base", i64 }
%"struct.std::_Rb_tree_node_base" = type { i32, ptr, ptr, ptr }
%"struct.pxrInternal_v0_24__pxrReserved__::TsTest_SplineData::Extrapolation" = type <{ i32, [4 x i8], double, i32, [4 x i8] }>
%"struct.pxrInternal_v0_24__pxrReserved__::TsTest_SplineData::InnerLoopParams" = type { i8, double, double, double, double, i8, double }

@_ZTVN32pxrInternal_v0_24__pxrReserved__16TsTest_EvaluatorE = unnamed_addr constant { [5 x ptr] } { [5 x ptr] [ptr null, ptr @_ZTIN32pxrInternal_v0_24__pxrReserved__16TsTest_EvaluatorE, ptr @__cxa_pure_virtual, ptr @_ZNK32pxrInternal_v0_24__pxrReserved__16TsTest_Evaluator6SampleERKNS_17TsTest_SplineDataEd, ptr @_ZNK32pxrInternal_v0_24__pxrReserved__16TsTest_Evaluator14BakeInnerLoopsERKNS_17TsTest_SplineDataE] }, align 8
@_ZTVN10__cxxabiv117__class_type_infoE = external global [0 x ptr]
@_ZTSN32pxrInternal_v0_24__pxrReserved__16TsTest_EvaluatorE = constant [55 x i8] c"N32pxrInternal_v0_24__pxrReserved__16TsTest_EvaluatorE\00", align 1
@_ZTIN32pxrInternal_v0_24__pxrReserved__16TsTest_EvaluatorE = constant { ptr, ptr } { ptr getelementptr inbounds (ptr, ptr @_ZTVN10__cxxabiv117__class_type_infoE, i64 2), ptr @_ZTSN32pxrInternal_v0_24__pxrReserved__16TsTest_EvaluatorE }, align 8

; Function Attrs: mustprogress nofree norecurse nosync nounwind willreturn memory(argmem: write) uwtable
define void @_ZNK32pxrInternal_v0_24__pxrReserved__16TsTest_Evaluator6SampleERKNS_17TsTest_SplineDataEd(ptr dead_on_unwind noalias writable writeonly sret(%"class.std::vector") align 8 captures(none) initializes((0, 24)) %0, ptr nonnull readnone align 8 captures(none) %1, ptr nonnull readnone align 8 captures(none) %2, double %3) unnamed_addr #0 align 2 {
  tail call void @llvm.memset.p0.i64(ptr noundef nonnull align 8 dereferenceable(24) %0, i8 0, i64 24, i1 false)
  ret void
}

; Function Attrs: mustprogress nocallback nofree nounwind willreturn memory(argmem: write)
declare void @llvm.memset.p0.i64(ptr writeonly captures(none), i8, i64, i1 immarg) #1

; Function Attrs: mustprogress uwtable
define void @_ZNK32pxrInternal_v0_24__pxrReserved__16TsTest_Evaluator14BakeInnerLoopsERKNS_17TsTest_SplineDataE(ptr dead_on_unwind noalias nonnull writable sret(%"class.pxrInternal_v0_24__pxrReserved__::TsTest_SplineData") align 8 %0, ptr nonnull readnone align 8 captures(none) %1, ptr noundef nonnull align 8 dereferenceable(160) %2) unnamed_addr #2 align 2 {
  tail call void @_ZN32pxrInternal_v0_24__pxrReserved__17TsTest_SplineDataC1ERKS0_(ptr noundef nonnull align 8 dereferenceable(160) %0, ptr noundef nonnull align 8 dereferenceable(160) %2)
  ret void
}

declare void @_ZN32pxrInternal_v0_24__pxrReserved__17TsTest_SplineDataC1ERKS0_(ptr noundef nonnull align 8 dereferenceable(160), ptr noundef nonnull align 8 dereferenceable(160)) unnamed_addr #3

declare void @__cxa_pure_virtual() unnamed_addr


!llvm.module.flags = !{!0, !1, !2, !3}

!0 = !{i32 1, !"wchar_size", i32 4}
!1 = !{i32 8, !"PIC Level", i32 2}
!2 = !{i32 7, !"uwtable", i32 2}
!3 = !{i32 7, !"frame-pointer", i32 2}
